target datalayout = "e-m:e-p270:32:32-p271:32:32-p272:64:64-i64:64-i128:128-f80:128-n8:16:32:64-S128"
target triple = "x86_64-pc-linux-gnu"

%struct.point_t = type { float, float }
%struct.image_t = type { ptr, ptr, ptr, i32, i32, ptr, float, i32, i32, float, [4 x %struct.point_t], ptr, i32 }

; Function Attrs: nounwind uwtable
define internal void @shrink_changed_callback(ptr noundef %0, ptr noundef %1) #0 {
  %3 = alloca ptr, align 8
  %4 = alloca ptr, align 8
  %5 = alloca ptr, align 8
  store ptr %0, ptr %3, align 8, !tbaa !94
  store ptr %1, ptr %4, align 8, !tbaa !62
  call void @llvm.lifetime.start.p0(i64 8, ptr %5) #15
  %6 = load ptr, ptr %4, align 8, !tbaa !62
  store ptr %6, ptr %5, align 8, !tbaa !48
  %7 = load ptr, ptr %3, align 8, !tbaa !94
  %8 = call reassoc nsz arcp contract afn double @gtk_range_get_value(ptr noundef %7)
  %9 = fptrunc reassoc nsz arcp contract afn double %8 to float
  %10 = load ptr, ptr %5, align 8, !tbaa !48
  %11 = getelementptr inbounds nuw %struct.image_t, ptr %10, i32 0, i32 9
  store float %9, ptr %11, align 4, !tbaa !96
  %12 = load ptr, ptr %5, align 8, !tbaa !48
  %13 = getelementptr inbounds nuw %struct.image_t, ptr %12, i32 0, i32 0
  %14 = load ptr, ptr %13, align 8, !tbaa !97
  call void @gtk_widget_queue_draw(ptr noundef %14)
  call void @llvm.lifetime.end.p0(i64 8, ptr %5) #15
  ret void
}