; Function Attrs: nounwind uwtable
define internal void @shrink_changed_callback(ptr noundef %0, ptr noundef captures(none) initializes((52, 56)) %1) #0 {
  %3 = tail call reassoc nsz arcp contract afn double @gtk_range_get_value(ptr noundef %0) #24
  %4 = fptrunc reassoc nsz arcp contract afn double %3 to float
  %5 = getelementptr inbounds nuw i8, ptr %1, i64 52
  store float %4, ptr %5, align 4, !tbaa !83
  %6 = load ptr, ptr %1, align 8, !tbaa !37
  tail call void @gtk_widget_queue_draw(ptr noundef %6) #24
  ret void
}